target datalayout = "e-m:e-p270:32:32-p271:32:32-p272:64:64-i64:64-i128:128-f80:128-n8:16:32:64-S128"
target triple = "x86_64-pc-linux-gnu"

; Function Attrs: mustprogress nounwind uwtable
define linkonce_odr hidden void @_ZN2cv12cpu_baseline16accProd_general_IhdEEvPKT_S4_PT0_PKhiii(ptr noundef %0, ptr noundef %1, ptr noundef %2, ptr noundef %3, i32 noundef %4, i32 noundef %5, i32 noundef %6) #2 comdat {
  %8 = alloca ptr, align 8
  %9 = alloca ptr, align 8
  %10 = alloca ptr, align 8
  %11 = alloca ptr, align 8
  %12 = alloca i32, align 4
  %13 = alloca i32, align 4
  %14 = alloca i32, align 4
  %15 = alloca i32, align 4
  %16 = alloca i32, align 4
  store ptr %0, ptr %8, align 8, !tbaa !3
  store ptr %1, ptr %9, align 8, !tbaa !3
  store ptr %2, ptr %10, align 8, !tbaa !29
  store ptr %3, ptr %11, align 8, !tbaa !3
  store i32 %4, ptr %12, align 4, !tbaa !10
  store i32 %5, ptr %13, align 4, !tbaa !10
  store i32 %6, ptr %14, align 4, !tbaa !10
  call void @llvm.lifetime.start.p0(i64 4, ptr %15) #4
  %17 = load i32, ptr %14, align 4, !tbaa !10
  store i32 %17, ptr %15, align 4, !tbaa !10
  %18 = load ptr, ptr %11, align 8, !tbaa !3
  %19 = icmp ne ptr %18, null
  br i1 %19, label %52, label %20

20:                                               ; preds = %7
  %21 = load i32, ptr %13, align 4, !tbaa !10
  %22 = load i32, ptr %12, align 4, !tbaa !10
  %23 = mul nsw i32 %22, %21
  store i32 %23, ptr %12, align 4, !tbaa !10
  br label %24

24:                                               ; preds = %48, %20
  %25 = load i32, ptr %15, align 4, !tbaa !10
  %26 = load i32, ptr %12, align 4, !tbaa !10
  %27 = icmp slt i32 %25, %26
  br i1 %27, label %28, label %51

28:                                               ; preds = %24
  %29 = load ptr, ptr %8, align 8, !tbaa !3
  %30 = load i32, ptr %15, align 4, !tbaa !10
  %31 = sext i32 %30 to i64
  %32 = getelementptr inbounds i8, ptr %29, i64 %31
  %33 = load i8, ptr %32, align 1, !tbaa !12
  %34 = uitofp i8 %33 to double
  %35 = load ptr, ptr %9, align 8, !tbaa !3
  %36 = load i32, ptr %15, align 4, !tbaa !10
  %37 = sext i32 %36 to i64
  %38 = getelementptr inbounds i8, ptr %35, i64 %37
  %39 = load i8, ptr %38, align 1, !tbaa !12
  %40 = zext i8 %39 to i32
  %41 = sitofp i32 %40 to double
  %42 = load ptr, ptr %10, align 8, !tbaa !29
  %43 = load i32, ptr %15, align 4, !tbaa !10
  %44 = sext i32 %43 to i64
  %45 = getelementptr inbounds double, ptr %42, i64 %44
  %46 = load double, ptr %45, align 8, !tbaa !31
  %47 = call double @llvm.fmuladd.f64(double %34, double %41, double %46)
  store double %47, ptr %45, align 8, !tbaa !31
  br label %48

48:                                               ; preds = %28
  %49 = load i32, ptr %15, align 4, !tbaa !10
  %50 = add nsw i32 %49, 1
  store i32 %50, ptr %15, align 4, !tbaa !10
  br label %24, !llvm.loop !75

51:                                               ; preds = %24
  br label %129

52:                                               ; preds = %7
  %53 = load i32, ptr %15, align 4, !tbaa !10
  %54 = load i32, ptr %13, align 4, !tbaa !10
  %55 = mul nsw i32 %53, %54
  %56 = load ptr, ptr %8, align 8, !tbaa !3
  %57 = sext i32 %55 to i64
  %58 = getelementptr inbounds i8, ptr %56, i64 %57
  store ptr %58, ptr %8, align 8, !tbaa !3
  %59 = load i32, ptr %15, align 4, !tbaa !10
  %60 = load i32, ptr %13, align 4, !tbaa !10
  %61 = mul nsw i32 %59, %60
  %62 = load ptr, ptr %9, align 8, !tbaa !3
  %63 = sext i32 %61 to i64
  %64 = getelementptr inbounds i8, ptr %62, i64 %63
  store ptr %64, ptr %9, align 8, !tbaa !3
  %65 = load i32, ptr %15, align 4, !tbaa !10
  %66 = load i32, ptr %13, align 4, !tbaa !10
  %67 = mul nsw i32 %65, %66
  %68 = load ptr, ptr %10, align 8, !tbaa !29
  %69 = sext i32 %67 to i64
  %70 = getelementptr inbounds double, ptr %68, i64 %69
  store ptr %70, ptr %10, align 8, !tbaa !29
  br label %71

71:                                               ; preds = %113, %52
  %72 = load i32, ptr %15, align 4, !tbaa !10
  %73 = load i32, ptr %12, align 4, !tbaa !10
  %74 = icmp slt i32 %72, %73
  br i1 %74, label %75, label %128

75:                                               ; preds = %71
  %76 = load ptr, ptr %11, align 8, !tbaa !3
  %77 = load i32, ptr %15, align 4, !tbaa !10
  %78 = sext i32 %77 to i64
  %79 = getelementptr inbounds i8, ptr %76, i64 %78
  %80 = load i8, ptr %79, align 1, !tbaa !12
  %81 = icmp ne i8 %80, 0
  br i1 %81, label %82, label %112

82:                                               ; preds = %75
  call void @llvm.lifetime.start.p0(i64 4, ptr %16) #4
  store i32 0, ptr %16, align 4, !tbaa !10
  br label %83

83:                                               ; preds = %108, %82
  %84 = load i32, ptr %16, align 4, !tbaa !10
  %85 = load i32, ptr %13, align 4, !tbaa !10
  %86 = icmp slt i32 %84, %85
  br i1 %86, label %88, label %87

87:                                               ; preds = %83
  call void @llvm.lifetime.end.p0(i64 4, ptr %16) #4
  br label %111

88:                                               ; preds = %83
  %89 = load ptr, ptr %8, align 8, !tbaa !3
  %90 = load i32, ptr %16, align 4, !tbaa !10
  %91 = sext i32 %90 to i64
  %92 = getelementptr inbounds i8, ptr %89, i64 %91
  %93 = load i8, ptr %92, align 1, !tbaa !12
  %94 = uitofp i8 %93 to double
  %95 = load ptr, ptr %9, align 8, !tbaa !3
  %96 = load i32, ptr %16, align 4, !tbaa !10
  %97 = sext i32 %96 to i64
  %98 = getelementptr inbounds i8, ptr %95, i64 %97
  %99 = load i8, ptr %98, align 1, !tbaa !12
  %100 = zext i8 %99 to i32
  %101 = sitofp i32 %100 to double
  %102 = load ptr, ptr %10, align 8, !tbaa !29
  %103 = load i32, ptr %16, align 4, !tbaa !10
  %104 = sext i32 %103 to i64
  %105 = getelementptr inbounds double, ptr %102, i64 %104
  %106 = load double, ptr %105, align 8, !tbaa !31
  %107 = call double @llvm.fmuladd.f64(double %94, double %101, double %106)
  store double %107, ptr %105, align 8, !tbaa !31
  br label %108

108:                                              ; preds = %88
  %109 = load i32, ptr %16, align 4, !tbaa !10
  %110 = add nsw i32 %109, 1
  store i32 %110, ptr %16, align 4, !tbaa !10
  br label %83, !llvm.loop !76

111:                                              ; preds = %87
  br label %112

112:                                              ; preds = %111, %75
  br label %113

113:                                              ; preds = %112
  %114 = load i32, ptr %15, align 4, !tbaa !10
  %115 = add nsw i32 %114, 1
  store i32 %115, ptr %15, align 4, !tbaa !10
  %116 = load i32, ptr %13, align 4, !tbaa !10
  %117 = load ptr, ptr %8, align 8, !tbaa !3
  %118 = sext i32 %116 to i64
  %119 = getelementptr inbounds i8, ptr %117, i64 %118
  store ptr %119, ptr %8, align 8, !tbaa !3
  %120 = load i32, ptr %13, align 4, !tbaa !10
  %121 = load ptr, ptr %9, align 8, !tbaa !3
  %122 = sext i32 %120 to i64
  %123 = getelementptr inbounds i8, ptr %121, i64 %122
  store ptr %123, ptr %9, align 8, !tbaa !3
  %124 = load i32, ptr %13, align 4, !tbaa !10
  %125 = load ptr, ptr %10, align 8, !tbaa !29
  %126 = sext i32 %124 to i64
  %127 = getelementptr inbounds double, ptr %125, i64 %126
  store ptr %127, ptr %10, align 8, !tbaa !29
  br label %71, !llvm.loop !77

128:                                              ; preds = %71
  br label %129

129:                                              ; preds = %128, %51
  call void @llvm.lifetime.end.p0(i64 4, ptr %15) #4
  ret void
}

; Function Attrs: mustprogress uwtable
define hidden void @_ZN2cv12cpu_baseline13accProd_simd_EPKhS2_PdS2_ii(ptr noundef %0, ptr noundef %1, ptr noundef %2, ptr noundef %3, i32 noundef %4, i32 noundef %5) #0 {
  %7 = alloca ptr, align 8
  %8 = alloca ptr, align 8
  %9 = alloca ptr, align 8
  %10 = alloca ptr, align 8
  %11 = alloca i32, align 4
  %12 = alloca i32, align 4
  %13 = alloca i32, align 4
  store ptr %0, ptr %7, align 8, !tbaa !3
  store ptr %1, ptr %8, align 8, !tbaa !3
  store ptr %2, ptr %9, align 8, !tbaa !29
  store ptr %3, ptr %10, align 8, !tbaa !3
  store i32 %4, ptr %11, align 4, !tbaa !10
  store i32 %5, ptr %12, align 4, !tbaa !10
  call void @llvm.lifetime.start.p0(i64 4, ptr %13) #4
  store i32 0, ptr %13, align 4, !tbaa !10
  %14 = load ptr, ptr %7, align 8, !tbaa !3
  %15 = load ptr, ptr %8, align 8, !tbaa !3
  %16 = load ptr, ptr %9, align 8, !tbaa !29
  %17 = load ptr, ptr %10, align 8, !tbaa !3
  %18 = load i32, ptr %11, align 4, !tbaa !10
  %19 = load i32, ptr %12, align 4, !tbaa !10
  %20 = load i32, ptr %13, align 4, !tbaa !10
  call void @_ZN2cv12cpu_baseline16accProd_general_IhdEEvPKT_S4_PT0_PKhiii(ptr noundef %14, ptr noundef %15, ptr noundef %16, ptr noundef %17, i32 noundef %18, i32 noundef %19, i32 noundef %20)
  call void @llvm.lifetime.end.p0(i64 4, ptr %13) #4
  ret void
}